target datalayout = "e-m:e-p270:32:32-p271:32:32-p272:64:64-i64:64-i128:128-f80:128-n8:16:32:64-S128"
target triple = "x86_64-pc-linux-gnu"

%struct._zval_struct = type { %union._zend_value, %union.anon, %union.anon.2 }
%union._zend_value = type { i64 }
%union.anon = type { i32 }
%union.anon.2 = type { i32 }
%struct._zend_array = type { %struct._zend_refcounted_h, %union.anon.4, i32, %union.anon.6, i32, i32, i32, i32, i64, ptr }
%struct._zend_refcounted_h = type { i32, %union.anon.3 }
%union.anon.3 = type { i32 }
%union.anon.4 = type { i32 }
%union.anon.6 = type { ptr }

@configuration_hash = internal global %struct._zend_array zeroinitializer, align 8
@has_per_dir_config = internal global i32 0, align 4

; Function Attrs: nounwind uwtable
define dso_local void @php_ini_activate_per_dir_config(ptr noundef %0, i64 noundef %1) #0 {
  %3 = alloca ptr, align 8
  %4 = alloca i64, align 8
  %5 = alloca ptr, align 8
  %6 = alloca ptr, align 8
  %7 = alloca i32, align 4
  store ptr %0, ptr %3, align 8, !tbaa !64
  store i64 %1, ptr %4, align 8, !tbaa !71
  call void @llvm.lifetime.start.p0(i64 8, ptr %5) #14
  call void @llvm.lifetime.start.p0(i64 8, ptr %6) #14
  %8 = load i64, ptr %4, align 8, !tbaa !71
  %9 = icmp ugt i64 %8, 4096
  br i1 %9, label %10, label %11

10:                                               ; preds = %2
  store i32 1, ptr %7, align 4
  br label %44

11:                                               ; preds = %2
  %12 = load i32, ptr @has_per_dir_config, align 4, !tbaa !20
  %13 = icmp ne i32 %12, 0
  br i1 %13, label %14, label %43

14:                                               ; preds = %11
  %15 = load ptr, ptr %3, align 8, !tbaa !64
  %16 = icmp ne ptr %15, null
  br i1 %16, label %17, label %43

17:                                               ; preds = %14
  %18 = load i64, ptr %4, align 8, !tbaa !71
  %19 = icmp ne i64 %18, 0
  br i1 %19, label %20, label %43

20:                                               ; preds = %17
  %21 = load ptr, ptr %3, align 8, !tbaa !64
  %22 = getelementptr inbounds i8, ptr %21, i64 1
  store ptr %22, ptr %6, align 8, !tbaa !64
  br label %23

23:                                               ; preds = %38, %20
  %24 = load ptr, ptr %6, align 8, !tbaa !64
  %25 = call ptr @strchr(ptr noundef %24, i32 noundef 47) #15
  store ptr %25, ptr %6, align 8, !tbaa !64
  %26 = icmp ne ptr %25, null
  br i1 %26, label %27, label %42

27:                                               ; preds = %23
  %28 = load ptr, ptr %6, align 8, !tbaa !64
  store i8 0, ptr %28, align 1, !tbaa !51
  %29 = load ptr, ptr %3, align 8, !tbaa !64
  %30 = load ptr, ptr %3, align 8, !tbaa !64
  %31 = call i64 @strlen(ptr noundef %30) #15
  %32 = call ptr @zend_hash_str_find(ptr noundef @configuration_hash, ptr noundef %29, i64 noundef %31)
  store ptr %32, ptr %5, align 8, !tbaa !55
  %33 = icmp ne ptr %32, null
  br i1 %33, label %34, label %38

34:                                               ; preds = %27
  %35 = load ptr, ptr %5, align 8, !tbaa !55
  %36 = getelementptr inbounds nuw %struct._zval_struct, ptr %35, i32 0, i32 0
  %37 = load ptr, ptr %36, align 8, !tbaa !51
  call void @php_ini_activate_config(ptr noundef %37, i32 noundef 4, i32 noundef 4)
  br label %38

38:                                               ; preds = %34, %27
  %39 = load ptr, ptr %6, align 8, !tbaa !64
  store i8 47, ptr %39, align 1, !tbaa !51
  %40 = load ptr, ptr %6, align 8, !tbaa !64
  %41 = getelementptr inbounds nuw i8, ptr %40, i32 1
  store ptr %41, ptr %6, align 8, !tbaa !64
  br label %23

42:                                               ; preds = %23
  br label %43

43:                                               ; preds = %42, %17, %14, %11
  store i32 0, ptr %7, align 4
  br label %44

44:                                               ; preds = %43, %10
  call void @llvm.lifetime.end.p0(i64 8, ptr %6) #14
  call void @llvm.lifetime.end.p0(i64 8, ptr %5) #14
  %45 = load i32, ptr %7, align 4
  switch i32 %45, label %47 [
    i32 0, label %46
    i32 1, label %46
  ]

46:                                               ; preds = %44, %44
  ret void

47:                                               ; preds = %44
  unreachable
}