; Function Attrs: nounwind uwtable
define dso_local void @php_ini_activate_per_dir_config(ptr noundef %0, i64 noundef %1) local_unnamed_addr #0 {
  %3 = icmp ugt i64 %1, 4096
  br i1 %3, label %.loopexit, label %4

4:                                                ; preds = %2
  %.b = load i1, ptr @has_per_dir_config, align 4
  %5 = icmp ne ptr %0, null
  %or.cond = and i1 %5, %.b
  %6 = icmp ne i64 %1, 0
  %or.cond3 = and i1 %6, %or.cond
  br i1 %or.cond3, label %.preheader, label %.loopexit

.preheader:                                       ; preds = %4
  %.018 = getelementptr inbounds nuw i8, ptr %0, i64 1
  %7 = tail call ptr @strchr(ptr noundef nonnull dereferenceable(1) %.018, i32 noundef 47) #17
  %.not19 = icmp eq ptr %7, null
  br i1 %.not19, label %.loopexit, label %.lr.ph

.lr.ph:                                           ; preds = %.preheader, %13
  %8 = phi ptr [ %14, %13 ], [ %7, %.preheader ]
  store i8 0, ptr %8, align 1, !tbaa !47
  %9 = tail call i64 @strlen(ptr noundef nonnull dereferenceable(1) %0) #17
  %10 = tail call ptr @zend_hash_str_find(ptr noundef nonnull @configuration_hash, ptr noundef nonnull %0, i64 noundef %9) #16
  %.not17 = icmp eq ptr %10, null
  br i1 %.not17, label %13, label %11

11:                                               ; preds = %.lr.ph
  %12 = load ptr, ptr %10, align 8, !tbaa !47
  tail call void @php_ini_activate_config(ptr noundef %12, i32 noundef 4, i32 noundef 4)
  br label %13

13:                                               ; preds = %11, %.lr.ph
  store i8 47, ptr %8, align 1, !tbaa !47
  %.0 = getelementptr inbounds nuw i8, ptr %8, i64 1
  %14 = tail call ptr @strchr(ptr noundef nonnull dereferenceable(1) %.0, i32 noundef 47) #17
  %.not = icmp eq ptr %14, null
  br i1 %.not, label %.loopexit, label %.lr.ph

.loopexit:                                        ; preds = %13, %.preheader, %4, %2
  ret void
}